ccopy_reg
_reconstructor
p1
(cgroup
Groups
p2
c__builtin__
object
p3
NtRp4
(dp5
S'groups'
p6
(lp7
g1
(cgroup
Group
p8
g3
NtRp9
(dp10
S'captain'
p11
S''
sS'name'
p12
S'KP-51'
p13
sS'creation_date'
p14
cdatetime
date
p15
(S'\x07\xe1\x0b\x0f'
tRp16
sbasb.