ccopy_reg
_reconstructor
p1
(cstudent
Students
p2
c__builtin__
object
p3
NtRp4
(dp5
S'students'
p6
(dp7
I1
g1
(cstudent
Student
p8
g3
NtRp9
(dp10
S'birthday'
p11
cdatetime
date
p12
(S'\x07\xce\x01\x01'
tRp13
sS'surname'
p14
S'Babenko'
p15
sS'name'
p16
S'Valery'
p17
sS'group_name'
p18
S'KP-51'
p19
sbssS'id'
p20
I2
sb.